; ModuleID = 'source-C-CXX/10/453.c'
source_filename = "source-C-CXX/10/453.c"
target datalayout = "e-m:e-p270:32:32-p271:32:32-p272:64:64-i64:64-f80:128-n8:16:32:64-S128"
target triple = "x86_64-pc-linux-gnu"

@.str = private unnamed_addr constant [7 x i8] c"%d%d%d\00", align 1
@.str.1 = private unnamed_addr constant [4 x i8] c"%d\0A\00", align 1

; Function Attrs: nofree nounwind sspstrong uwtable
define dso_local i32 @main() local_unnamed_addr #0 {
  %1 = alloca i32, align 4
  %2 = alloca i32, align 4
  %3 = alloca i32, align 4
  %4 = bitcast i32* %1 to i8*
  call void @llvm.lifetime.start.p0i8(i64 4, i8* nonnull %4) #3
  %5 = bitcast i32* %2 to i8*
  call void @llvm.lifetime.start.p0i8(i64 4, i8* nonnull %5) #3
  %6 = bitcast i32* %3 to i8*
  call void @llvm.lifetime.start.p0i8(i64 4, i8* nonnull %6) #3
  %7 = call i32 (i8*, ...) @__isoc99_scanf(i8* getelementptr inbounds ([7 x i8], [7 x i8]* @.str, i64 0, i64 0), i32* nonnull %1, i32* nonnull %2, i32* nonnull %3)
  %8 = load i32, i32* %2, align 4, !tbaa !5
  switch i32 %8, label %54 [
    i32 1, label %9
    i32 2, label %11
    i32 3, label %14
    i32 4, label %27
    i32 5, label %30
    i32 6, label %33
    i32 7, label %36
    i32 8, label %39
    i32 9, label %42
    i32 10, label %45
    i32 11, label %48
    i32 12, label %51
  ]

9:                                                ; preds = %0
  %10 = load i32, i32* %3, align 4, !tbaa !5
  br label %54

11:                                               ; preds = %0
  %12 = load i32, i32* %3, align 4, !tbaa !5
  %13 = add nsw i32 %12, 31
  br label %54

14:                                               ; preds = %0
  %15 = load i32, i32* %3, align 4, !tbaa !5
  %16 = load i32, i32* %1, align 4, !tbaa !5
  %17 = and i32 %16, 3
  %18 = icmp eq i32 %17, 0
  %19 = srem i32 %16, 100
  %20 = icmp ne i32 %19, 0
  %21 = and i1 %18, %20
  %22 = srem i32 %16, 400
  %23 = icmp eq i32 %22, 0
  %24 = select i1 %21, i1 true, i1 %23
  %25 = select i1 %24, i32 60, i32 59
  %26 = add nsw i32 %25, %15
  br label %54

27:                                               ; preds = %0
  %28 = load i32, i32* %3, align 4, !tbaa !5
  %29 = add nsw i32 %28, 90
  br label %54

30:                                               ; preds = %0
  %31 = load i32, i32* %3, align 4, !tbaa !5
  %32 = add nsw i32 %31, 120
  br label %54

33:                                               ; preds = %0
  %34 = load i32, i32* %3, align 4, !tbaa !5
  %35 = add nsw i32 %34, 151
  br label %54

36:                                               ; preds = %0
  %37 = load i32, i32* %3, align 4, !tbaa !5
  %38 = add nsw i32 %37, 181
  br label %54

39:                                               ; preds = %0
  %40 = load i32, i32* %3, align 4, !tbaa !5
  %41 = add nsw i32 %40, 212
  br label %54

42:                                               ; preds = %0
  %43 = load i32, i32* %3, align 4, !tbaa !5
  %44 = add nsw i32 %43, 243
  br label %54

45:                                               ; preds = %0
  %46 = load i32, i32* %3, align 4, !tbaa !5
  %47 = add nsw i32 %46, 273
  br label %54

48:                                               ; preds = %0
  %49 = load i32, i32* %3, align 4, !tbaa !5
  %50 = add nsw i32 %49, 304
  br label %54

51:                                               ; preds = %0
  %52 = load i32, i32* %3, align 4, !tbaa !5
  %53 = add nsw i32 %52, 334
  br label %54

54:                                               ; preds = %14, %0, %51, %48, %45, %42, %39, %36, %33, %30, %27, %11, %9
  %55 = phi i32 [ undef, %0 ], [ %53, %51 ], [ %50, %48 ], [ %47, %45 ], [ %44, %42 ], [ %41, %39 ], [ %38, %36 ], [ %35, %33 ], [ %32, %30 ], [ %29, %27 ], [ %13, %11 ], [ %10, %9 ], [ %26, %14 ]
  %56 = call i32 (i8*, ...) @printf(i8* nonnull dereferenceable(1) getelementptr inbounds ([4 x i8], [4 x i8]* @.str.1, i64 0, i64 0), i32 %55)
  call void @llvm.lifetime.end.p0i8(i64 4, i8* nonnull %6) #3
  call void @llvm.lifetime.end.p0i8(i64 4, i8* nonnull %5) #3
  call void @llvm.lifetime.end.p0i8(i64 4, i8* nonnull %4) #3
  ret i32 0
}

; Function Attrs: argmemonly mustprogress nofree nosync nounwind willreturn
declare void @llvm.lifetime.start.p0i8(i64 immarg, i8* nocapture) #1

; Function Attrs: nofree nounwind
declare noundef i32 @__isoc99_scanf(i8* nocapture noundef readonly, ...) local_unnamed_addr #2

; Function Attrs: nofree nounwind
declare noundef i32 @printf(i8* nocapture noundef readonly, ...) local_unnamed_addr #2

; Function Attrs: argmemonly mustprogress nofree nosync nounwind willreturn
declare void @llvm.lifetime.end.p0i8(i64 immarg, i8* nocapture) #1


!llvm.module.flags = !{!0, !1, !2, !3}
!llvm.ident = !{!4}

!0 = !{i32 1, !"wchar_size", i32 4}
!1 = !{i32 7, !"PIC Level", i32 2}
!2 = !{i32 7, !"PIE Level", i32 2}
!3 = !{i32 7, !"uwtable", i32 1}
!4 = !{!"clang version 13.0.0"}
!5 = !{!6, !6, i64 0}
!6 = !{!"int", !7, i64 0}
!7 = !{!"omnipotent char", !8, i64 0}
!8 = !{!"Simple C/C++ TBAA"}
